; Function Attrs: nounwind uwtable
define i32 @wolfSSL_preferred_group(ptr noundef %0) local_unnamed_addr #0 {
  %2 = icmp eq ptr %0, null
  br i1 %2, label %17, label %3

3:                                                ; preds = %1
  %4 = getelementptr inbounds nuw i8, ptr %0, i64 710
  %5 = load i16, ptr %4, align 2
  %6 = tail call i32 @IsAtLeastTLSv1_3(i16 %5) #11
  %.not = icmp eq i32 %6, 0
  br i1 %.not, label %17, label %7

7:                                                ; preds = %3
  %8 = getelementptr inbounds nuw i8, ptr %0, i64 1024
  %9 = load i64, ptr %8, align 8
  %10 = and i64 %9, 48
  %11 = icmp eq i64 %10, 0
  br i1 %11, label %17, label %12

12:                                               ; preds = %7
  %13 = getelementptr inbounds nuw i8, ptr %0, i64 1045
  %14 = load i8, ptr %13, align 1, !tbaa !124
  %.not6 = icmp eq i8 %14, 16
  br i1 %.not6, label %15, label %17

15:                                               ; preds = %12
  %16 = tail call i32 @TLSX_SupportedCurve_Preferred(ptr noundef nonnull %0, i32 noundef 1) #11
  br label %17

17:                                               ; preds = %12, %7, %1, %3, %15
  %.0 = phi i32 [ %16, %15 ], [ -173, %3 ], [ -173, %1 ], [ -344, %7 ], [ -324, %12 ]
  ret i32 %.0
}